; Function Attrs: mustprogress uwtable
define hidden void @_ZN17asserted_formulas10force_pushEv(ptr noundef nonnull align 8 dereferenceable(7236) %0) local_unnamed_addr #3 align 2 {
  %2 = getelementptr inbounds nuw i8, ptr %0, i64 7232
  %3 = load i32, ptr %2, align 8, !tbaa !361
  %.not1 = icmp eq i32 %3, 0
  br i1 %.not1, label %._crit_edge, label %.lr.ph

.lr.ph:                                           ; preds = %1, %.lr.ph
  tail call void @_ZN17asserted_formulas15push_scope_coreEv(ptr noundef nonnull align 8 dereferenceable(7236) %0)
  %4 = load i32, ptr %2, align 8, !tbaa !361
  %5 = add i32 %4, -1
  store i32 %5, ptr %2, align 8, !tbaa !361
  %.not = icmp eq i32 %5, 0
  br i1 %.not, label %._crit_edge, label %.lr.ph, !llvm.loop !467

._crit_edge:                                      ; preds = %.lr.ph, %1
  ret void
}